; Function Attrs: nounwind uwtable
define void @gvdevice_format(ptr noundef %0) local_unnamed_addr #0 {
  %2 = getelementptr inbounds nuw i8, ptr %0, i64 152
  %3 = load ptr, ptr %2, align 8, !tbaa !3
  %.not = icmp eq ptr %3, null
  br i1 %.not, label %8, label %4

4:                                                ; preds = %1
  %5 = getelementptr inbounds nuw i8, ptr %3, i64 8
  %6 = load ptr, ptr %5, align 8, !tbaa !77
  %.not7 = icmp eq ptr %6, null
  br i1 %.not7, label %8, label %7

7:                                                ; preds = %4
  tail call void %6(ptr noundef nonnull %0) #21
  br label %8

8:                                                ; preds = %7, %4, %1
  %9 = getelementptr inbounds nuw i8, ptr %0, i64 72
  %10 = load ptr, ptr %9, align 8, !tbaa !34
  %.not.i = icmp eq ptr %10, null
  br i1 %.not.i, label %gvflush.exit, label %11

11:                                               ; preds = %8
  %12 = getelementptr inbounds nuw i8, ptr %0, i64 264
  %13 = load i8, ptr %12, align 8, !tbaa !76, !range !50, !noundef !51
  %14 = trunc nuw i8 %13 to i1
  br i1 %14, label %gvflush.exit, label %15

15:                                               ; preds = %11
  %16 = load ptr, ptr %0, align 8, !tbaa !30
  %17 = getelementptr inbounds nuw i8, ptr %16, i64 208
  %18 = load ptr, ptr %17, align 8, !tbaa !68
  %.not5.i = icmp eq ptr %18, null
  br i1 %.not5.i, label %19, label %gvflush.exit

19:                                               ; preds = %15
  %20 = tail call i32 @fflush(ptr noundef nonnull %10)
  br label %gvflush.exit

gvflush.exit:                                     ; preds = %8, %11, %15, %19
  ret void
}